; Function Attrs: mustprogress uwtable
define hidden noundef nonnull align 8 dereferenceable(8) ptr @_ZlsRSoRK12PackedStruct(ptr noundef nonnull align 8 dereferenceable(8) %0, ptr nocapture noundef nonnull readonly align 1 dereferenceable(25) %1) local_unnamed_addr #1 {
  %3 = tail call noundef nonnull align 8 dereferenceable(8) ptr @_ZStlsISt11char_traitsIcEERSt13basic_ostreamIcT_ES5_PKc(ptr noundef nonnull align 8 dereferenceable(8) %0, ptr noundef nonnull @.str.2)
  %4 = load i8, ptr %1, align 1
  %5 = and i8 %4, 1
  %6 = icmp ne i8 %5, 0
  %7 = tail call noundef nonnull align 8 dereferenceable(8) ptr @_ZNSolsEb(ptr noundef nonnull align 8 dereferenceable(8) %3, i1 noundef zeroext %6)
  %8 = tail call noundef nonnull align 8 dereferenceable(8) ptr @_ZStlsISt11char_traitsIcEERSt13basic_ostreamIcT_ES5_PKc(ptr noundef nonnull align 8 dereferenceable(8) %7, ptr noundef nonnull @.str.1)
  %9 = getelementptr inbounds i8, ptr %1, i64 1
  %10 = load i32, ptr %9, align 1
  %11 = tail call noundef nonnull align 8 dereferenceable(8) ptr @_ZNSolsEj(ptr noundef nonnull align 8 dereferenceable(8) %8, i32 noundef %10)
  %12 = tail call noundef nonnull align 8 dereferenceable(8) ptr @_ZStlsISt11char_traitsIcEERSt13basic_ostreamIcT_ES5_PKc(ptr noundef nonnull align 8 dereferenceable(8) %11, ptr noundef nonnull @.str.1)
  %13 = getelementptr inbounds i8, ptr %1, i64 5
  %14 = load float, ptr %13, align 1
  %15 = tail call noundef nonnull align 8 dereferenceable(8) ptr @_ZNSolsEf(ptr noundef nonnull align 8 dereferenceable(8) %12, float noundef %14)
  %16 = tail call noundef nonnull align 8 dereferenceable(8) ptr @_ZStlsISt11char_traitsIcEERSt13basic_ostreamIcT_ES5_PKc(ptr noundef nonnull align 8 dereferenceable(8) %15, ptr noundef nonnull @.str.1)
  %17 = getelementptr inbounds i8, ptr %1, i64 9
  %18 = load x86_fp80, ptr %17, align 1
  %19 = tail call noundef nonnull align 8 dereferenceable(8) ptr @_ZNSolsEe(ptr noundef nonnull align 8 dereferenceable(8) %16, x86_fp80 noundef %18)
  ret ptr %19
}